; Function Attrs: mustprogress nofree norecurse nosync nounwind willreturn memory(read, inaccessiblemem: none) uwtable
define noundef zeroext i1 @_ZN7jsonnet8internal16contains_newlineERKSt6vectorINS0_13FodderElementESaIS2_EE(ptr noundef nonnull readonly align 8 captures(none) dereferenceable(24) %0) local_unnamed_addr #9 {
  %2 = load ptr, ptr %0, align 8, !tbaa !15
  %3 = getelementptr inbounds nuw i8, ptr %0, i64 8
  %4 = load ptr, ptr %3, align 8, !tbaa !15
  %.not1112.not = icmp eq ptr %2, %4
  br i1 %.not1112.not, label %._crit_edge, label %.lr.ph

.lr.ph:                                           ; preds = %1, %.lr.ph
  %.sroa.08.013 = phi ptr [ %6, %.lr.ph ], [ %2, %1 ]
  %5 = load i32, ptr %.sroa.08.013, align 8, !tbaa !20
  %.not.not = icmp ne i32 %5, 1
  %6 = getelementptr inbounds nuw i8, ptr %.sroa.08.013, i64 40
  %.not11.not = icmp eq ptr %6, %4
  %or.cond = select i1 %.not.not, i1 true, i1 %.not11.not
  br i1 %or.cond, label %._crit_edge, label %.lr.ph

._crit_edge:                                      ; preds = %.lr.ph, %1
  %.not11.lcssa = phi i1 [ false, %1 ], [ %.not.not, %.lr.ph ]
  ret i1 %.not11.lcssa
}